target datalayout = "e-m:e-p270:32:32-p271:32:32-p272:64:64-i64:64-i128:128-f80:128-n8:16:32:64-S128"
target triple = "x86_64-pc-linux-gnu"

%"struct.ozz::geometry::SkinningJob" = type { i32, i32, %"struct.ozz::span", %"struct.ozz::span", %"struct.ozz::span.0", i64, %"struct.ozz::span.1", i64, %"struct.ozz::span.1", i64, %"struct.ozz::span.1", i64, %"struct.ozz::span.1", i64, %"struct.ozz::span.2", i64, %"struct.ozz::span.2", i64, %"struct.ozz::span.2", i64 }
%"struct.ozz::span" = type { ptr, i64 }
%"struct.ozz::span.0" = type { ptr, i64 }
%"struct.ozz::span.1" = type { ptr, i64 }
%"struct.ozz::span.2" = type { ptr, i64 }

; Function Attrs: mustprogress nounwind uwtable
define linkonce_odr dso_local noundef zeroext i1 @_ZNK3ozz4spanIKfE5emptyEv(ptr noundef nonnull align 8 dereferenceable(16) %0) #1 comdat align 2 {
  %2 = alloca ptr, align 8
  store ptr %0, ptr %2, align 8, !tbaa !37
  %3 = load ptr, ptr %2, align 8
  %4 = getelementptr inbounds nuw %"struct.ozz::span.1", ptr %3, i32 0, i32 1
  %5 = load i64, ptr %4, align 8, !tbaa !40
  %6 = icmp eq i64 %5, 0
  ret i1 %6
}

; Function Attrs: mustprogress nounwind uwtable
define linkonce_odr dso_local noundef zeroext i1 @_ZNK3ozz4spanIKNS_4math8Float4x4EE5emptyEv(ptr noundef nonnull align 8 dereferenceable(16) %0) #1 comdat align 2 {
  %2 = alloca ptr, align 8
  store ptr %0, ptr %2, align 8, !tbaa !29
  %3 = load ptr, ptr %2, align 8
  %4 = getelementptr inbounds nuw %"struct.ozz::span", ptr %3, i32 0, i32 1
  %5 = load i64, ptr %4, align 8, !tbaa !32
  %6 = icmp eq i64 %5, 0
  ret i1 %6
}

; Function Attrs: mustprogress uwtable
define dso_local noundef zeroext i1 @_ZNK3ozz8geometry11SkinningJob3RunEv(ptr noundef nonnull align 8 dereferenceable(232) %0) #0 align 2 {
  %2 = alloca i1, align 1
  %3 = alloca ptr, align 8
  %4 = alloca i64, align 8
  %5 = alloca i64, align 8
  %6 = alloca i64, align 8
  store ptr %0, ptr %3, align 8, !tbaa !4
  %7 = load ptr, ptr %3, align 8
  %8 = call noundef zeroext i1 @_ZNK3ozz8geometry11SkinningJob8ValidateEv(ptr noundef nonnull align 8 dereferenceable(232) %7)
  br i1 %8, label %10, label %9

9:                                                ; preds = %1
  store i1 false, ptr %2, align 1
  br label %49

10:                                               ; preds = %1
  %11 = getelementptr inbounds nuw %"struct.ozz::geometry::SkinningJob", ptr %7, i32 0, i32 0
  %12 = load i32, ptr %11, align 8, !tbaa !9
  %13 = icmp eq i32 %12, 0
  br i1 %13, label %14, label %15

14:                                               ; preds = %10
  store i1 true, ptr %2, align 1
  br label %49

15:                                               ; preds = %10
  call void @llvm.lifetime.start.p0(i64 8, ptr %4) #8
  %16 = getelementptr inbounds nuw %"struct.ozz::geometry::SkinningJob", ptr %7, i32 0, i32 3
  %17 = call noundef zeroext i1 @_ZNK3ozz4spanIKNS_4math8Float4x4EE5emptyEv(ptr noundef nonnull align 8 dereferenceable(16) %16)
  %18 = xor i1 %17, true
  %19 = zext i1 %18 to i64
  store i64 %19, ptr %4, align 8, !tbaa !58
  call void @llvm.lifetime.start.p0(i64 8, ptr %5) #8
  %20 = getelementptr inbounds nuw %"struct.ozz::geometry::SkinningJob", ptr %7, i32 0, i32 1
  %21 = load i32, ptr %20, align 4, !tbaa !20
  %22 = sext i32 %21 to i64
  %23 = icmp ugt i64 %22, 5
  br i1 %23, label %24, label %25

24:                                               ; preds = %15
  br label %30

25:                                               ; preds = %15
  %26 = getelementptr inbounds nuw %"struct.ozz::geometry::SkinningJob", ptr %7, i32 0, i32 1
  %27 = load i32, ptr %26, align 4, !tbaa !20
  %28 = sub nsw i32 %27, 1
  %29 = sext i32 %28 to i64
  br label %30

30:                                               ; preds = %25, %24
  %31 = phi i64 [ 4, %24 ], [ %29, %25 ]
  store i64 %31, ptr %5, align 8, !tbaa !58
  call void @llvm.lifetime.start.p0(i64 8, ptr %6) #8
  %32 = getelementptr inbounds nuw %"struct.ozz::geometry::SkinningJob", ptr %7, i32 0, i32 10
  %33 = call noundef zeroext i1 @_ZNK3ozz4spanIKfE5emptyEv(ptr noundef nonnull align 8 dereferenceable(16) %32)
  %34 = xor i1 %33, true
  %35 = zext i1 %34 to i32
  %36 = getelementptr inbounds nuw %"struct.ozz::geometry::SkinningJob", ptr %7, i32 0, i32 12
  %37 = call noundef zeroext i1 @_ZNK3ozz4spanIKfE5emptyEv(ptr noundef nonnull align 8 dereferenceable(16) %36)
  %38 = xor i1 %37, true
  %39 = zext i1 %38 to i32
  %40 = add nsw i32 %35, %39
  %41 = sext i32 %40 to i64
  store i64 %41, ptr %6, align 8, !tbaa !58
  %42 = load i64, ptr %4, align 8, !tbaa !58
  %43 = getelementptr inbounds nuw [2 x [5 x [3 x ptr]]], ptr @_ZN3ozz8geometryL12kSkinningFctE, i64 0, i64 %42
  %44 = load i64, ptr %5, align 8, !tbaa !58
  %45 = getelementptr inbounds nuw [5 x [3 x ptr]], ptr %43, i64 0, i64 %44
  %46 = load i64, ptr %6, align 8, !tbaa !58
  %47 = getelementptr inbounds nuw [3 x ptr], ptr %45, i64 0, i64 %46
  %48 = load ptr, ptr %47, align 8, !tbaa !94
  call void %48(ptr noundef nonnull align 8 dereferenceable(232) %7)
  store i1 true, ptr %2, align 1
  call void @llvm.lifetime.end.p0(i64 8, ptr %6) #8
  call void @llvm.lifetime.end.p0(i64 8, ptr %5) #8
  call void @llvm.lifetime.end.p0(i64 8, ptr %4) #8
  br label %49

49:                                               ; preds = %30, %14, %9
  %50 = load i1, ptr %2, align 1
  ret i1 %50
}