; Function Attrs: mustprogress uwtable
define dso_local noundef zeroext i1 @_ZNK3ozz8geometry11SkinningJob3RunEv(ptr noundef nonnull align 8 dereferenceable(232) %0) local_unnamed_addr #3 align 2 {
  %2 = tail call noundef zeroext i1 @_ZNK3ozz8geometry11SkinningJob8ValidateEv(ptr noundef nonnull align 8 dereferenceable(232) %0)
  %3 = load i32, ptr %0, align 8
  %4 = icmp ne i32 %3, 0
  %or.cond.not = select i1 %2, i1 %4, i1 false
  br i1 %or.cond.not, label %5, label %25

5:                                                ; preds = %1
  %6 = getelementptr inbounds nuw i8, ptr %0, i64 32
  %7 = load i64, ptr %6, align 8, !tbaa !18
  %8 = icmp ne i64 %7, 0
  %9 = zext i1 %8 to i64
  %10 = getelementptr inbounds nuw i8, ptr %0, i64 4
  %11 = load i32, ptr %10, align 4, !tbaa !4
  %12 = tail call i32 @llvm.umin.i32(i32 %11, i32 5)
  %narrow = add nsw i32 %12, -1
  %13 = sext i32 %narrow to i64
  %14 = getelementptr inbounds nuw i8, ptr %0, i64 120
  %15 = load i64, ptr %14, align 8, !tbaa !22
  %16 = icmp ne i64 %15, 0
  %17 = zext i1 %16 to i64
  %18 = getelementptr inbounds nuw i8, ptr %0, i64 144
  %19 = load i64, ptr %18, align 8, !tbaa !22
  %20 = icmp ne i64 %19, 0
  %21 = zext i1 %20 to i64
  %22 = add nuw nsw i64 %21, %17
  %23 = getelementptr inbounds nuw [2 x [5 x [3 x ptr]]], ptr @_ZN3ozz8geometryL12kSkinningFctE, i64 0, i64 %9, i64 %13, i64 %22
  %24 = load ptr, ptr %23, align 8, !tbaa !578
  tail call void %24(ptr noundef nonnull align 8 dereferenceable(232) %0)
  br label %25

25:                                               ; preds = %1, %5
  ret i1 %2
}